target datalayout = "e-m:e-p270:32:32-p271:32:32-p272:64:64-i64:64-i128:128-f80:128-n8:16:32:64-S128"
target triple = "x86_64-pc-linux-gnu"

%struct.strbuf = type { i64, i64, ptr }
%struct.ref_format = type { ptr, ptr, i32, i32, i32, %struct.anon }
%struct.anon = type { i32, i32 }
%struct.string_list = type { ptr, i64, i64, i8, ptr }
%struct.ref_sorting = type { ptr, i32, i32 }
%struct.string_list_item = type { ptr, ptr }

@.str.5 = private unnamed_addr constant [3 x i8] c"%s\00", align 1
@.str.198 = private unnamed_addr constant [9 x i8] c"version:\00", align 1
@.str.199 = private unnamed_addr constant [3 x i8] c"v:\00", align 1
@__const.parse_sorting_atom.err = private unnamed_addr constant %struct.strbuf { i64 0, i64 0, ptr @strbuf_slopbuf }, align 8

; Function Attrs: nounwind uwtable
define internal i32 @parse_sorting_atom(ptr noundef %0) #0 {
  %2 = alloca ptr, align 8
  %3 = alloca %struct.ref_format, align 8
  %4 = alloca ptr, align 8
  %5 = alloca %struct.strbuf, align 8
  %6 = alloca i32, align 4
  store ptr %0, ptr %2, align 8, !tbaa !13
  call void @llvm.lifetime.start.p0(i64 40, ptr %3) #11
  call void @llvm.memset.p0.i64(ptr align 8 %3, i8 0, i64 40, i1 false)
  %7 = getelementptr inbounds { ptr, ptr, i32, i32, i32, %struct.anon, [4 x i8] }, ptr %3, i32 0, i32 3
  store i32 -1, ptr %7, align 4
  call void @llvm.lifetime.start.p0(i64 8, ptr %4) #11
  %8 = load ptr, ptr %2, align 8, !tbaa !13
  %9 = load ptr, ptr %2, align 8, !tbaa !13
  %10 = call i64 @strlen(ptr noundef %9) #12
  %11 = getelementptr inbounds nuw i8, ptr %8, i64 %10
  store ptr %11, ptr %4, align 8, !tbaa !13
  call void @llvm.lifetime.start.p0(i64 24, ptr %5) #11
  call void @llvm.memcpy.p0.p0.i64(ptr align 8 %5, ptr align 8 @__const.parse_sorting_atom.err, i64 24, i1 false)
  call void @llvm.lifetime.start.p0(i64 4, ptr %6) #11
  %12 = load ptr, ptr %2, align 8, !tbaa !13
  %13 = load ptr, ptr %4, align 8, !tbaa !13
  %14 = call i32 @parse_ref_filter_atom(ptr noundef %3, ptr noundef %12, ptr noundef %13, ptr noundef %5)
  store i32 %14, ptr %6, align 4, !tbaa !15
  %15 = load i32, ptr %6, align 4, !tbaa !15
  %16 = icmp slt i32 %15, 0
  br i1 %16, label %17, label %20

17:                                               ; preds = %1
  %18 = getelementptr inbounds nuw %struct.strbuf, ptr %5, i32 0, i32 2
  %19 = load ptr, ptr %18, align 8, !tbaa !23
  call void (ptr, ...) @die(ptr noundef @.str.5, ptr noundef %19) #13
  unreachable

20:                                               ; preds = %1
  call void @strbuf_release(ptr noundef %5)
  %21 = load i32, ptr %6, align 4, !tbaa !15
  call void @llvm.lifetime.end.p0(i64 4, ptr %6) #11
  call void @llvm.lifetime.end.p0(i64 24, ptr %5) #11
  call void @llvm.lifetime.end.p0(i64 8, ptr %4) #11
  call void @llvm.lifetime.end.p0(i64 40, ptr %3) #11
  ret i32 %21
}

; Function Attrs: inlinehint nounwind uwtable
define internal zeroext i1 @skip_prefix(ptr noundef %0, ptr noundef %1, ptr noundef %2) #1 {
  %4 = alloca i1, align 1
  %5 = alloca ptr, align 8
  %6 = alloca ptr, align 8
  %7 = alloca ptr, align 8
  store ptr %0, ptr %5, align 8, !tbaa !13
  store ptr %1, ptr %6, align 8, !tbaa !13
  store ptr %2, ptr %7, align 8, !tbaa !53
  br label %8

8:                                                ; preds = %16, %3
  %9 = load ptr, ptr %6, align 8, !tbaa !13
  %10 = load i8, ptr %9, align 1, !tbaa !14
  %11 = icmp ne i8 %10, 0
  br i1 %11, label %15, label %12

12:                                               ; preds = %8
  %13 = load ptr, ptr %5, align 8, !tbaa !13
  %14 = load ptr, ptr %7, align 8, !tbaa !53
  store ptr %13, ptr %14, align 8, !tbaa !13
  store i1 true, ptr %4, align 1
  br label %27

15:                                               ; preds = %8
  br label %16

16:                                               ; preds = %15
  %17 = load ptr, ptr %5, align 8, !tbaa !13
  %18 = getelementptr inbounds nuw i8, ptr %17, i32 1
  store ptr %18, ptr %5, align 8, !tbaa !13
  %19 = load i8, ptr %17, align 1, !tbaa !14
  %20 = sext i8 %19 to i32
  %21 = load ptr, ptr %6, align 8, !tbaa !13
  %22 = getelementptr inbounds nuw i8, ptr %21, i32 1
  store ptr %22, ptr %6, align 8, !tbaa !13
  %23 = load i8, ptr %21, align 1, !tbaa !14
  %24 = sext i8 %23 to i32
  %25 = icmp eq i32 %20, %24
  br i1 %25, label %8, label %26, !llvm.loop !55

26:                                               ; preds = %16
  store i1 false, ptr %4, align 1
  br label %27

27:                                               ; preds = %26, %12
  %28 = load i1, ptr %4, align 1
  ret i1 %28
}

; Function Attrs: nounwind uwtable
define internal void @parse_ref_sorting(ptr noundef %0, ptr noundef %1) #0 {
  %3 = alloca ptr, align 8
  %4 = alloca ptr, align 8
  %5 = alloca ptr, align 8
  store ptr %0, ptr %3, align 8, !tbaa !184
  store ptr %1, ptr %4, align 8, !tbaa !13
  call void @llvm.lifetime.start.p0(i64 8, ptr %5) #11
  %6 = call ptr @xcalloc(i64 noundef 1, i64 noundef 16)
  store ptr %6, ptr %5, align 8, !tbaa !134
  %7 = load ptr, ptr %3, align 8, !tbaa !184
  %8 = load ptr, ptr %7, align 8, !tbaa !134
  %9 = load ptr, ptr %5, align 8, !tbaa !134
  %10 = getelementptr inbounds nuw %struct.ref_sorting, ptr %9, i32 0, i32 0
  store ptr %8, ptr %10, align 8, !tbaa !140
  %11 = load ptr, ptr %5, align 8, !tbaa !134
  %12 = load ptr, ptr %3, align 8, !tbaa !184
  store ptr %11, ptr %12, align 8, !tbaa !134
  %13 = load ptr, ptr %4, align 8, !tbaa !13
  %14 = load i8, ptr %13, align 1, !tbaa !14
  %15 = sext i8 %14 to i32
  %16 = icmp eq i32 %15, 45
  br i1 %16, label %17, label %24

17:                                               ; preds = %2
  %18 = load ptr, ptr %5, align 8, !tbaa !134
  %19 = getelementptr inbounds nuw %struct.ref_sorting, ptr %18, i32 0, i32 2
  %20 = load i32, ptr %19, align 4, !tbaa !142
  %21 = or i32 %20, 1
  store i32 %21, ptr %19, align 4, !tbaa !142
  %22 = load ptr, ptr %4, align 8, !tbaa !13
  %23 = getelementptr inbounds nuw i8, ptr %22, i32 1
  store ptr %23, ptr %4, align 8, !tbaa !13
  br label %24

24:                                               ; preds = %17, %2
  %25 = load ptr, ptr %4, align 8, !tbaa !13
  %26 = call zeroext i1 @skip_prefix(ptr noundef %25, ptr noundef @.str.198, ptr noundef %4)
  br i1 %26, label %30, label %27

27:                                               ; preds = %24
  %28 = load ptr, ptr %4, align 8, !tbaa !13
  %29 = call zeroext i1 @skip_prefix(ptr noundef %28, ptr noundef @.str.199, ptr noundef %4)
  br i1 %29, label %30, label %35

30:                                               ; preds = %27, %24
  %31 = load ptr, ptr %5, align 8, !tbaa !134
  %32 = getelementptr inbounds nuw %struct.ref_sorting, ptr %31, i32 0, i32 2
  %33 = load i32, ptr %32, align 4, !tbaa !142
  %34 = or i32 %33, 4
  store i32 %34, ptr %32, align 4, !tbaa !142
  br label %35

35:                                               ; preds = %30, %27
  %36 = load ptr, ptr %4, align 8, !tbaa !13
  %37 = call i32 @parse_sorting_atom(ptr noundef %36)
  %38 = load ptr, ptr %5, align 8, !tbaa !134
  %39 = getelementptr inbounds nuw %struct.ref_sorting, ptr %38, i32 0, i32 1
  store i32 %37, ptr %39, align 8, !tbaa !143
  call void @llvm.lifetime.end.p0(i64 8, ptr %5) #11
  ret void
}

; Function Attrs: nounwind uwtable
define dso_local ptr @ref_sorting_options(ptr noundef %0) #0 {
  %2 = alloca ptr, align 8
  %3 = alloca ptr, align 8
  %4 = alloca ptr, align 8
  %5 = alloca ptr, align 8
  store ptr %0, ptr %2, align 8, !tbaa !182
  call void @llvm.lifetime.start.p0(i64 8, ptr %3) #11
  call void @llvm.lifetime.start.p0(i64 8, ptr %4) #11
  store ptr null, ptr %4, align 8, !tbaa !134
  call void @llvm.lifetime.start.p0(i64 8, ptr %5) #11
  store ptr %4, ptr %5, align 8, !tbaa !184
  %6 = load ptr, ptr %2, align 8, !tbaa !182
  %7 = getelementptr inbounds nuw %struct.string_list, ptr %6, i32 0, i32 1
  %8 = load i64, ptr %7, align 8, !tbaa !186
  %9 = icmp ne i64 %8, 0
  br i1 %9, label %10, label %38

10:                                               ; preds = %1
  %11 = load ptr, ptr %2, align 8, !tbaa !182
  %12 = getelementptr inbounds nuw %struct.string_list, ptr %11, i32 0, i32 0
  %13 = load ptr, ptr %12, align 8, !tbaa !189
  store ptr %13, ptr %3, align 8, !tbaa !190
  br label %14

14:                                               ; preds = %34, %10
  %15 = load ptr, ptr %3, align 8, !tbaa !190
  %16 = icmp ne ptr %15, null
  br i1 %16, label %17, label %27

17:                                               ; preds = %14
  %18 = load ptr, ptr %3, align 8, !tbaa !190
  %19 = load ptr, ptr %2, align 8, !tbaa !182
  %20 = getelementptr inbounds nuw %struct.string_list, ptr %19, i32 0, i32 0
  %21 = load ptr, ptr %20, align 8, !tbaa !189
  %22 = load ptr, ptr %2, align 8, !tbaa !182
  %23 = getelementptr inbounds nuw %struct.string_list, ptr %22, i32 0, i32 1
  %24 = load i64, ptr %23, align 8, !tbaa !186
  %25 = getelementptr inbounds nuw %struct.string_list_item, ptr %21, i64 %24
  %26 = icmp ult ptr %18, %25
  br label %27

27:                                               ; preds = %17, %14
  %28 = phi i1 [ false, %14 ], [ %26, %17 ]
  br i1 %28, label %29, label %37

29:                                               ; preds = %27
  %30 = load ptr, ptr %5, align 8, !tbaa !184
  %31 = load ptr, ptr %3, align 8, !tbaa !190
  %32 = getelementptr inbounds nuw %struct.string_list_item, ptr %31, i32 0, i32 0
  %33 = load ptr, ptr %32, align 8, !tbaa !191
  call void @parse_ref_sorting(ptr noundef %30, ptr noundef %33)
  br label %34

34:                                               ; preds = %29
  %35 = load ptr, ptr %3, align 8, !tbaa !190
  %36 = getelementptr inbounds nuw %struct.string_list_item, ptr %35, i32 1
  store ptr %36, ptr %3, align 8, !tbaa !190
  br label %14, !llvm.loop !193

37:                                               ; preds = %27
  br label %38

38:                                               ; preds = %37, %1
  %39 = load ptr, ptr %2, align 8, !tbaa !182
  call void @string_list_clear(ptr noundef %39, i32 noundef 0)
  %40 = load ptr, ptr %4, align 8, !tbaa !134
  call void @llvm.lifetime.end.p0(i64 8, ptr %5) #11
  call void @llvm.lifetime.end.p0(i64 8, ptr %4) #11
  call void @llvm.lifetime.end.p0(i64 8, ptr %3) #11
  ret ptr %40
}