; Function Attrs: nounwind uwtable
define dso_local noundef ptr @ref_sorting_options(ptr noundef %0) local_unnamed_addr #0 {
  %2 = alloca %struct.ref_format, align 8
  %3 = alloca %struct.strbuf, align 8
  %4 = getelementptr inbounds nuw i8, ptr %0, i64 8
  %5 = load i64, ptr %4, align 8, !tbaa !190
  %.not = icmp eq i64 %5, 0
  br i1 %.not, label %.critedge, label %6

6:                                                ; preds = %1
  %7 = load ptr, ptr %0, align 8, !tbaa !193
  %.not1015 = icmp eq ptr %7, null
  br i1 %.not1015, label %.critedge, label %.lr.ph

.lr.ph:                                           ; preds = %6
  %8 = getelementptr inbounds nuw i8, ptr %2, i64 20
  %9 = load ptr, ptr %0, align 8, !tbaa !193
  %10 = load i64, ptr %4, align 8, !tbaa !190
  %11 = getelementptr inbounds nuw %struct.string_list_item, ptr %9, i64 %10
  %12 = icmp ult ptr %7, %11
  br i1 %12, label %.lr.ph27, label %.critedge

.lr.ph27:                                         ; preds = %.lr.ph, %parse_ref_sorting.exit
  %.11626 = phi ptr [ %14, %parse_ref_sorting.exit ], [ null, %.lr.ph ]
  %.01725 = phi ptr [ %45, %parse_ref_sorting.exit ], [ %7, %.lr.ph ]
  %13 = load ptr, ptr %.01725, align 8, !tbaa !194
  %14 = call ptr @xcalloc(i64 noundef 1, i64 noundef 16) #23
  store ptr %.11626, ptr %14, align 8, !tbaa !124
  %15 = load i8, ptr %13, align 1, !tbaa !15
  %16 = icmp eq i8 %15, 45
  br i1 %16, label %17, label %22

17:                                               ; preds = %.lr.ph27
  %18 = getelementptr inbounds nuw i8, ptr %14, i64 12
  %19 = load i32, ptr %18, align 4, !tbaa !127
  %20 = or i32 %19, 1
  store i32 %20, ptr %18, align 4, !tbaa !127
  %21 = getelementptr inbounds nuw i8, ptr %13, i64 1
  br label %22

22:                                               ; preds = %17, %.lr.ph27
  %.0.i = phi ptr [ %21, %17 ], [ %13, %.lr.ph27 ]
  %scevgep.i = getelementptr i8, ptr %.0.i, i64 8
  br label %23

23:                                               ; preds = %24, %22
  %.07.i.i = phi ptr [ %.0.i, %22 ], [ %26, %24 ]
  %.06.i.idx.i = phi i64 [ 0, %22 ], [ %.06.i.add.i, %24 ]
  %exitcond.i = icmp eq i64 %.06.i.idx.i, 8
  br i1 %exitcond.i, label %skip_prefix.exit.thread.i, label %24

24:                                               ; preds = %23
  %.06.i.ptr.i = getelementptr inbounds nuw i8, ptr @.str.198, i64 %.06.i.idx.i
  %25 = load i8, ptr %.06.i.ptr.i, align 1, !tbaa !15
  %26 = getelementptr inbounds nuw i8, ptr %.07.i.i, i64 1
  %27 = load i8, ptr %.07.i.i, align 1, !tbaa !15
  %.06.i.add.i = add nuw nsw i64 %.06.i.idx.i, 1
  %28 = icmp eq i8 %27, %25
  br i1 %28, label %23, label %skip_prefix.exit.preheader.i, !llvm.loop !31

skip_prefix.exit.preheader.i:                     ; preds = %24
  %scevgep23.i = getelementptr i8, ptr %.0.i, i64 2
  br label %skip_prefix.exit.i

skip_prefix.exit.i:                               ; preds = %29, %skip_prefix.exit.preheader.i
  %.07.i7.i = phi ptr [ %31, %29 ], [ %.0.i, %skip_prefix.exit.preheader.i ]
  %.06.i8.idx.i = phi i64 [ %.06.i8.add.i, %29 ], [ 0, %skip_prefix.exit.preheader.i ]
  %exitcond24.i = icmp eq i64 %.06.i8.idx.i, 2
  br i1 %exitcond24.i, label %skip_prefix.exit.thread.i, label %29

29:                                               ; preds = %skip_prefix.exit.i
  %.06.i8.ptr.i = getelementptr inbounds nuw i8, ptr @.str.199, i64 %.06.i8.idx.i
  %30 = load i8, ptr %.06.i8.ptr.i, align 1, !tbaa !15
  %31 = getelementptr inbounds nuw i8, ptr %.07.i7.i, i64 1
  %32 = load i8, ptr %.07.i7.i, align 1, !tbaa !15
  %.06.i8.add.i = add nuw nsw i64 %.06.i8.idx.i, 1
  %33 = icmp eq i8 %32, %30
  br i1 %33, label %skip_prefix.exit.i, label %skip_prefix.exit10.i, !llvm.loop !31

skip_prefix.exit.thread.i:                        ; preds = %23, %skip_prefix.exit.i
  %.1.i = phi ptr [ %scevgep23.i, %skip_prefix.exit.i ], [ %scevgep.i, %23 ]
  %34 = getelementptr inbounds nuw i8, ptr %14, i64 12
  %35 = load i32, ptr %34, align 4, !tbaa !127
  %36 = or i32 %35, 4
  store i32 %36, ptr %34, align 4, !tbaa !127
  br label %skip_prefix.exit10.i

skip_prefix.exit10.i:                             ; preds = %29, %skip_prefix.exit.thread.i
  %.2.i = phi ptr [ %.1.i, %skip_prefix.exit.thread.i ], [ %.0.i, %29 ]
  call void @llvm.lifetime.start.p0(i64 40, ptr nonnull %2) #23
  call void @llvm.memset.p0.i64(ptr noundef nonnull align 8 dereferenceable(40) %2, i8 0, i64 40, i1 false)
  store i32 -1, ptr %8, align 4
  %37 = call i64 @strlen(ptr noundef nonnull dereferenceable(1) %.2.i) #24
  %38 = getelementptr inbounds nuw i8, ptr %.2.i, i64 %37
  call void @llvm.lifetime.start.p0(i64 24, ptr nonnull %3) #23
  call void @llvm.memcpy.p0.p0.i64(ptr noundef nonnull align 8 dereferenceable(24) %3, ptr noundef nonnull align 8 dereferenceable(24) @__const.parse_sorting_atom.err, i64 24, i1 false)
  %39 = call fastcc i32 @parse_ref_filter_atom(ptr noundef nonnull %2, ptr noundef nonnull %.2.i, ptr noundef nonnull %38, ptr noundef nonnull %3)
  %40 = icmp slt i32 %39, 0
  br i1 %40, label %41, label %parse_ref_sorting.exit

41:                                               ; preds = %skip_prefix.exit10.i
  %42 = getelementptr inbounds nuw i8, ptr %3, i64 16
  %43 = load ptr, ptr %42, align 8, !tbaa !22
  call void (ptr, ...) @die(ptr noundef nonnull @.str.5, ptr noundef %43) #25
  unreachable

parse_ref_sorting.exit:                           ; preds = %skip_prefix.exit10.i
  call void @strbuf_release(ptr noundef nonnull %3) #23
  call void @llvm.lifetime.end.p0(i64 24, ptr nonnull %3) #23
  call void @llvm.lifetime.end.p0(i64 40, ptr nonnull %2) #23
  %44 = getelementptr inbounds nuw i8, ptr %14, i64 8
  store i32 %39, ptr %44, align 8, !tbaa !128
  %45 = getelementptr inbounds nuw i8, ptr %.01725, i64 16
  %46 = load ptr, ptr %0, align 8, !tbaa !193
  %47 = load i64, ptr %4, align 8, !tbaa !190
  %48 = getelementptr inbounds nuw %struct.string_list_item, ptr %46, i64 %47
  %49 = icmp ult ptr %45, %48
  br i1 %49, label %.lr.ph27, label %.critedge

.critedge:                                        ; preds = %parse_ref_sorting.exit, %.lr.ph, %6, %1
  %.012 = phi ptr [ null, %1 ], [ null, %6 ], [ null, %.lr.ph ], [ %14, %parse_ref_sorting.exit ]
  call void @string_list_clear(ptr noundef nonnull %0, i32 noundef 0) #23
  ret ptr %.012
}